(dp0
S'DeviceSeq'
p1
S'1cfe28f0750f421892a2407c059debcb'
p2
sS'ol'
p3
S'1'
p4
sS'qr_t'
p5
S'c'
p6
sS'pin'
p7
S'%E5%A4%84%E4%B8%8D%E5%8F%AF%E5%8F%8A'
p8
sS'ceshi3.com'
p9
S'103'
p10
sS'_tp'
p11
S'uiSIJ06Ekny%2FIn7RzPSKkctruDzZxk1eGtmFwTO8xv0zt20XUdpilQ1Ft6SBHviO'
p12
sS'TrackID'
p13
S'1a-kmF-6rQF2WdP2t6gHRMXkX3MUqGsvoYmwPKtQdWJTbR0n498pI8BgJ05GzFEwYGaZvSZlkbb3bQxYbcMsH26VSUrvM4UJMyVD_1B3BqJo'
p14
sS'_t'
p15
S'FdAEVs6SQsQuJI8b67ziGeqCpvVjCbxpeq3Anw9Ss3c='
p16
sS'_pst'
p17
S'%E5%A4%84%E4%B8%8D%E5%8F%AF%E5%8F%8A'
p18
sS'alc'
p19
S'lRv1l6yP91nbgrUPJrbhOg=='
p20
sS'thor'
p21
S'5D7C12DC4297C141B085A9E8BB9898864F83F2A029F70D253386B589163438139134B9FA9C52E104B770E37AA59714FDDDF786D19ABF690640AA4E6152D00522CB6420A2FD3A26C91CD1457B43111B83909F05E2757CA30B9E36F30F88F880204BD06E4748DF178D69CAE620E257108B3E950F7CE21514AE74AF8A40295604DA'
p22
sS'QRCodeKey'
p23
S'AAEAIMb06tXs4nw-9b9b9Vc-1pxo5PB2P-2Iq-BG-TSI8A3c'
p24
sS'pinId'
p25
S'BcALrz0fqRPivqero_QFXQ'
p26
sS'unick'
p27
S'%E5%A4%84%E4%B8%8D%E5%8F%AF%E5%8F%8A'
p28
sS'logining'
p29
g4
sS'wlfstk_smdl'
p30
S'omdmn4xv3k5v7wmgg2rftxje0ipbhma6'
p31
s.